target datalayout = "e-m:e-p270:32:32-p271:32:32-p272:64:64-i64:64-i128:128-f80:128-n8:16:32:64-S128"
target triple = "x86_64-pc-linux-gnu"

%struct.AVFilterContext = type { ptr, ptr, ptr, ptr, ptr, i32, ptr, ptr, i32, ptr, ptr, i32, i32, ptr, ptr, ptr, ptr, i32, ptr, i32, i32 }
%struct.NoiseContext = type { ptr, i32, [4 x i32], [4 x i32], %struct.FilterParams, [4 x %struct.FilterParams], ptr, ptr }
%struct.FilterParams = type { i32, i32, %struct.AVLFG, i32, ptr, [4096 x [3 x ptr]], [4096 x i32], i32 }
%struct.AVLFG = type { [64 x i32], i32 }
%struct.AVPixFmtDescriptor = type { ptr, i8, i8, i8, i64, [4 x %struct.AVComponentDescriptor], ptr }
%struct.AVComponentDescriptor = type { i32, i32, i32, i32, i32 }
%struct.AVFilterLink = type { ptr, ptr, ptr, ptr, i32, i32, i32, i32, %struct.AVRational, i32, i32, i32, %struct.AVChannelLayout, %struct.AVRational, ptr, i32, %struct.AVFilterFormatsConfig, %struct.AVFilterFormatsConfig }
%struct.AVChannelLayout = type { i32, i32, %union.anon.1, ptr }
%union.anon.1 = type { i64 }
%struct.AVRational = type { i32, i32 }
%struct.AVFilterFormatsConfig = type { ptr, ptr, ptr, ptr, ptr }

; Function Attrs: nounwind uwtable
define internal i32 @config_input(ptr noundef %0) #0 {
  %2 = alloca i32, align 4
  %3 = alloca ptr, align 8
  %4 = alloca ptr, align 8
  %5 = alloca ptr, align 8
  %6 = alloca i32, align 4
  %7 = alloca i32, align 4
  store ptr %0, ptr %3, align 8, !tbaa !58
  call void @llvm.lifetime.start.p0(i64 8, ptr %4) #9
  %8 = load ptr, ptr %3, align 8, !tbaa !58
  %9 = getelementptr inbounds nuw %struct.AVFilterLink, ptr %8, i32 0, i32 2
  %10 = load ptr, ptr %9, align 8, !tbaa !62
  %11 = getelementptr inbounds nuw %struct.AVFilterContext, ptr %10, i32 0, i32 9
  %12 = load ptr, ptr %11, align 8, !tbaa !20
  store ptr %12, ptr %4, align 8, !tbaa !30
  call void @llvm.lifetime.start.p0(i64 8, ptr %5) #9
  %13 = load ptr, ptr %3, align 8, !tbaa !58
  %14 = getelementptr inbounds nuw %struct.AVFilterLink, ptr %13, i32 0, i32 5
  %15 = load i32, ptr %14, align 4, !tbaa !80
  %16 = call ptr @av_pix_fmt_desc_get(i32 noundef %15)
  store ptr %16, ptr %5, align 8, !tbaa !50
  call void @llvm.lifetime.start.p0(i64 4, ptr %6) #9
  %17 = load ptr, ptr %3, align 8, !tbaa !58
  %18 = getelementptr inbounds nuw %struct.AVFilterLink, ptr %17, i32 0, i32 5
  %19 = load i32, ptr %18, align 4, !tbaa !80
  %20 = call i32 @av_pix_fmt_count_planes(i32 noundef %19)
  %21 = load ptr, ptr %4, align 8, !tbaa !30
  %22 = getelementptr inbounds nuw %struct.NoiseContext, ptr %21, i32 0, i32 1
  store i32 %20, ptr %22, align 8, !tbaa !81
  %23 = load ptr, ptr %4, align 8, !tbaa !30
  %24 = getelementptr inbounds nuw %struct.NoiseContext, ptr %23, i32 0, i32 2
  %25 = getelementptr inbounds [4 x i32], ptr %24, i64 0, i64 0
  %26 = load ptr, ptr %3, align 8, !tbaa !58
  %27 = getelementptr inbounds nuw %struct.AVFilterLink, ptr %26, i32 0, i32 5
  %28 = load i32, ptr %27, align 4, !tbaa !80
  %29 = load ptr, ptr %3, align 8, !tbaa !58
  %30 = getelementptr inbounds nuw %struct.AVFilterLink, ptr %29, i32 0, i32 6
  %31 = load i32, ptr %30, align 8, !tbaa !70
  %32 = call i32 @av_image_fill_linesizes(ptr noundef %25, i32 noundef %28, i32 noundef %31)
  store i32 %32, ptr %6, align 4, !tbaa !9
  %33 = icmp slt i32 %32, 0
  br i1 %33, label %34, label %36

34:                                               ; preds = %1
  %35 = load i32, ptr %6, align 4, !tbaa !9
  store i32 %35, ptr %2, align 4
  store i32 1, ptr %7, align 4
  br label %85

36:                                               ; preds = %1
  %37 = load ptr, ptr %5, align 8, !tbaa !50
  %38 = getelementptr inbounds nuw %struct.AVPixFmtDescriptor, ptr %37, i32 0, i32 3
  %39 = load i8, ptr %38, align 2, !tbaa !82
  %40 = call i1 @llvm.is.constant.i8(i8 %39)
  br i1 %40, label %52, label %41

41:                                               ; preds = %36
  %42 = load ptr, ptr %3, align 8, !tbaa !58
  %43 = getelementptr inbounds nuw %struct.AVFilterLink, ptr %42, i32 0, i32 7
  %44 = load i32, ptr %43, align 4, !tbaa !71
  %45 = sub nsw i32 0, %44
  %46 = load ptr, ptr %5, align 8, !tbaa !50
  %47 = getelementptr inbounds nuw %struct.AVPixFmtDescriptor, ptr %46, i32 0, i32 3
  %48 = load i8, ptr %47, align 2, !tbaa !82
  %49 = zext i8 %48 to i32
  %50 = ashr i32 %45, %49
  %51 = sub nsw i32 0, %50
  br label %68

52:                                               ; preds = %36
  %53 = load ptr, ptr %3, align 8, !tbaa !58
  %54 = getelementptr inbounds nuw %struct.AVFilterLink, ptr %53, i32 0, i32 7
  %55 = load i32, ptr %54, align 4, !tbaa !71
  %56 = load ptr, ptr %5, align 8, !tbaa !50
  %57 = getelementptr inbounds nuw %struct.AVPixFmtDescriptor, ptr %56, i32 0, i32 3
  %58 = load i8, ptr %57, align 2, !tbaa !82
  %59 = zext i8 %58 to i32
  %60 = shl i32 1, %59
  %61 = add nsw i32 %55, %60
  %62 = sub nsw i32 %61, 1
  %63 = load ptr, ptr %5, align 8, !tbaa !50
  %64 = getelementptr inbounds nuw %struct.AVPixFmtDescriptor, ptr %63, i32 0, i32 3
  %65 = load i8, ptr %64, align 2, !tbaa !82
  %66 = zext i8 %65 to i32
  %67 = ashr i32 %62, %66
  br label %68

68:                                               ; preds = %52, %41
  %69 = phi i32 [ %51, %41 ], [ %67, %52 ]
  %70 = load ptr, ptr %4, align 8, !tbaa !30
  %71 = getelementptr inbounds nuw %struct.NoiseContext, ptr %70, i32 0, i32 3
  %72 = getelementptr inbounds [4 x i32], ptr %71, i64 0, i64 2
  store i32 %69, ptr %72, align 4, !tbaa !9
  %73 = load ptr, ptr %4, align 8, !tbaa !30
  %74 = getelementptr inbounds nuw %struct.NoiseContext, ptr %73, i32 0, i32 3
  %75 = getelementptr inbounds [4 x i32], ptr %74, i64 0, i64 1
  store i32 %69, ptr %75, align 4, !tbaa !9
  %76 = load ptr, ptr %3, align 8, !tbaa !58
  %77 = getelementptr inbounds nuw %struct.AVFilterLink, ptr %76, i32 0, i32 7
  %78 = load i32, ptr %77, align 4, !tbaa !71
  %79 = load ptr, ptr %4, align 8, !tbaa !30
  %80 = getelementptr inbounds nuw %struct.NoiseContext, ptr %79, i32 0, i32 3
  %81 = getelementptr inbounds [4 x i32], ptr %80, i64 0, i64 3
  store i32 %78, ptr %81, align 4, !tbaa !9
  %82 = load ptr, ptr %4, align 8, !tbaa !30
  %83 = getelementptr inbounds nuw %struct.NoiseContext, ptr %82, i32 0, i32 3
  %84 = getelementptr inbounds [4 x i32], ptr %83, i64 0, i64 0
  store i32 %78, ptr %84, align 4, !tbaa !9
  store i32 0, ptr %2, align 4
  store i32 1, ptr %7, align 4
  br label %85

85:                                               ; preds = %68, %34
  call void @llvm.lifetime.end.p0(i64 4, ptr %6) #9
  call void @llvm.lifetime.end.p0(i64 8, ptr %5) #9
  call void @llvm.lifetime.end.p0(i64 8, ptr %4) #9
  %86 = load i32, ptr %2, align 4
  ret i32 %86
}