; Function Attrs: nounwind uwtable
define internal range(i32 -2147483648, 1) i32 @config_input(ptr noundef readonly captures(none) %0) #4 {
  %2 = getelementptr inbounds nuw i8, ptr %0, i64 16
  %3 = load ptr, ptr %2, align 8, !tbaa !49
  %4 = getelementptr inbounds nuw i8, ptr %3, i64 72
  %5 = load ptr, ptr %4, align 8, !tbaa !13
  %6 = getelementptr inbounds nuw i8, ptr %0, i64 36
  %7 = load i32, ptr %6, align 4, !tbaa !70
  %8 = tail call ptr @av_pix_fmt_desc_get(i32 noundef %7) #10
  %9 = load i32, ptr %6, align 4, !tbaa !70
  %10 = tail call i32 @av_pix_fmt_count_planes(i32 noundef %9) #10
  %11 = getelementptr inbounds nuw i8, ptr %5, i64 8
  store i32 %10, ptr %11, align 8, !tbaa !71
  %12 = getelementptr inbounds nuw i8, ptr %5, i64 12
  %13 = load i32, ptr %6, align 4, !tbaa !70
  %14 = getelementptr inbounds nuw i8, ptr %0, i64 40
  %15 = load i32, ptr %14, align 8, !tbaa !60
  %16 = tail call i32 @av_image_fill_linesizes(ptr noundef nonnull %12, i32 noundef %13, i32 noundef %15) #10
  %17 = icmp slt i32 %16, 0
  br i1 %17, label %33, label %18

18:                                               ; preds = %1
  %19 = getelementptr inbounds nuw i8, ptr %0, i64 44
  %20 = load i32, ptr %19, align 4, !tbaa !61
  %21 = sub nsw i32 0, %20
  %22 = getelementptr inbounds nuw i8, ptr %8, i64 10
  %23 = load i8, ptr %22, align 2, !tbaa !72
  %24 = zext nneg i8 %23 to i32
  %25 = ashr i32 %21, %24
  %26 = sub nsw i32 0, %25
  %27 = getelementptr inbounds nuw i8, ptr %5, i64 28
  %28 = getelementptr inbounds nuw i8, ptr %5, i64 36
  store i32 %26, ptr %28, align 4, !tbaa !64
  %29 = getelementptr inbounds nuw i8, ptr %5, i64 32
  store i32 %26, ptr %29, align 4, !tbaa !64
  %30 = getelementptr inbounds nuw i8, ptr %0, i64 44
  %31 = load i32, ptr %30, align 4, !tbaa !61
  %32 = getelementptr inbounds nuw i8, ptr %5, i64 40
  store i32 %31, ptr %32, align 4, !tbaa !64
  store i32 %31, ptr %27, align 4, !tbaa !64
  br label %33

33:                                               ; preds = %1, %18
  %.0 = phi i32 [ 0, %18 ], [ %16, %1 ]
  ret i32 %.0
}